target datalayout = "e-m:e-p270:32:32-p271:32:32-p272:64:64-i64:64-i128:128-f80:128-n8:16:32:64-S128"
target triple = "x86_64-pc-linux-gnu"

%"struct.osgeo::proj::pj_sqlite3_vfs" = type { ptr, %struct.sqlite3_vfs, %"class.std::__cxx11::basic_string" }
%struct.sqlite3_vfs = type { i32, i32, i32, ptr, ptr, ptr, ptr, ptr, ptr, ptr, ptr, ptr, ptr, ptr, ptr, ptr, ptr, ptr, ptr, ptr, ptr, ptr }
%"class.std::__cxx11::basic_string" = type { %"struct.std::__cxx11::basic_string<char>::_Alloc_hider", i64, %union.anon }
%"struct.std::__cxx11::basic_string<char>::_Alloc_hider" = type { ptr }
%union.anon = type { i64, [8 x i8] }
%"class.osgeo::proj::SQLite3VFS" = type { ptr }

; Function Attrs: mustprogress nounwind uwtable
define hidden void @_ZN5osgeo4proj10SQLite3VFSD2Ev(ptr noundef nonnull align 8 dereferenceable(8) %0) unnamed_addr #0 align 2 personality ptr @__gxx_personality_v0 {
  %2 = alloca ptr, align 8
  store ptr %0, ptr %2, align 8, !tbaa !12
  %3 = load ptr, ptr %2, align 8
  %4 = getelementptr inbounds nuw %"class.osgeo::proj::SQLite3VFS", ptr %3, i32 0, i32 0
  %5 = load ptr, ptr %4, align 8, !tbaa !14
  %6 = icmp ne ptr %5, null
  br i1 %6, label %7, label %21

7:                                                ; preds = %1
  %8 = getelementptr inbounds nuw %"class.osgeo::proj::SQLite3VFS", ptr %3, i32 0, i32 0
  %9 = load ptr, ptr %8, align 8, !tbaa !14
  %10 = getelementptr inbounds nuw %"struct.osgeo::proj::pj_sqlite3_vfs", ptr %9, i32 0, i32 1
  %11 = invoke i32 @sqlite3_vfs_unregister(ptr noundef %10)
          to label %12 unwind label %22

12:                                               ; preds = %7
  %13 = getelementptr inbounds nuw %"class.osgeo::proj::SQLite3VFS", ptr %3, i32 0, i32 0
  %14 = load ptr, ptr %13, align 8, !tbaa !14
  %15 = icmp eq ptr %14, null
  br i1 %15, label %20, label %16

16:                                               ; preds = %12
  %17 = load ptr, ptr %14, align 8, !tbaa !8
  %18 = getelementptr inbounds ptr, ptr %17, i64 1
  %19 = load ptr, ptr %18, align 8
  call void %19(ptr noundef nonnull align 8 dereferenceable(208) %14) #9
  br label %20

20:                                               ; preds = %16, %12
  br label %21

21:                                               ; preds = %20, %1
  ret void

22:                                               ; preds = %7
  %23 = landingpad { ptr, i32 }
          catch ptr null
  %24 = extractvalue { ptr, i32 } %23, 0
  call void @__clang_call_terminate(ptr %24) #18
  unreachable
}