; Function Attrs: mustprogress nounwind uwtable
define hidden void @_ZN5osgeo4proj10SQLite3VFSD2Ev(ptr noundef nonnull readonly align 8 captures(none) dereferenceable(8) %0) unnamed_addr #0 align 2 personality ptr @__gxx_personality_v0 {
  %2 = load ptr, ptr %0, align 8, !tbaa !15
  %.not = icmp eq ptr %2, null
  br i1 %.not, label %13, label %3

3:                                                ; preds = %1
  %4 = getelementptr inbounds nuw i8, ptr %2, i64 8
  %5 = invoke i32 @sqlite3_vfs_unregister(ptr noundef nonnull %4)
          to label %6 unwind label %14

6:                                                ; preds = %3
  %7 = load ptr, ptr %0, align 8, !tbaa !15
  %8 = icmp eq ptr %7, null
  br i1 %8, label %13, label %9

9:                                                ; preds = %6
  %10 = load ptr, ptr %7, align 8, !tbaa !3
  %11 = getelementptr inbounds nuw i8, ptr %10, i64 8
  %12 = load ptr, ptr %11, align 8
  tail call void %12(ptr noundef nonnull align 8 dereferenceable(208) %7) #24
  br label %13

13:                                               ; preds = %6, %9, %1
  ret void

14:                                               ; preds = %3
  %15 = landingpad { ptr, i32 }
          catch ptr null
  %16 = extractvalue { ptr, i32 } %15, 0
  tail call void @__clang_call_terminate(ptr %16) #25
  unreachable
}